target datalayout = "e-m:e-p270:32:32-p271:32:32-p272:64:64-i64:64-i128:128-f80:128-n8:16:32:64-S128"
target triple = "x86_64-unknown-linux-gnu"

%struct.tsd_s = type { i8, i8, i64, i64, i64, i64, i64, i64, i64, i64, i64, i64, i64, i64, ptr, i64, i64, i64, ptr, ptr, %struct.ticker_geom_s, i8, %struct.tsd_binshards_s, %struct.tsd_link_t, i8, %struct.peak_s, %struct.activity_callback_thunk_s, %struct.tcache_slow_s, %struct.rtree_ctx_s, %struct.atomic_u8_t, i64, i64, i64, i64, %struct.tcache_s, %struct.witness_tsd_s }
%struct.ticker_geom_s = type { i32, i32 }
%struct.tsd_binshards_s = type { [39 x i8] }
%struct.tsd_link_t = type { ptr, ptr }
%struct.peak_s = type { i64, i64 }
%struct.activity_callback_thunk_s = type { ptr, ptr }
%struct.tcache_slow_s = type { %struct.anon.8, %struct.cache_bin_array_descriptor_s, ptr, i32, [39 x i8], [39 x i8], [39 x i8], ptr, ptr }
%struct.anon.8 = type { ptr, ptr }
%struct.cache_bin_array_descriptor_s = type { %struct.anon.9, ptr }
%struct.anon.9 = type { ptr, ptr }
%struct.rtree_ctx_s = type { [16 x %struct.rtree_ctx_cache_elm_s], [8 x %struct.rtree_ctx_cache_elm_s] }
%struct.rtree_ctx_cache_elm_s = type { i64, ptr }
%struct.atomic_u8_t = type { i8 }
%struct.tcache_s = type { ptr, [76 x %struct.cache_bin_s] }
%struct.cache_bin_s = type { ptr, %struct.cache_bin_stats_s, i16, i16, i16 }
%struct.cache_bin_stats_s = type { i64 }
%struct.witness_tsd_s = type { %struct.witness_list_t, i8 }
%struct.witness_list_t = type { ptr }

@malloc_init_state = hidden global i32 3, align 4
@tsd_tls = external thread_local(initialexec) global %struct.tsd_s, align 8

; Function Attrs: nounwind uwtable
define dso_local i32 @je_mallctlbymib(ptr noundef %mib, i64 noundef %miblen, ptr noundef %oldp, ptr noundef %oldlenp, ptr noundef %newp, i64 noundef %newlen) #0 {
entry:
  %init.addr.i.i = alloca i8, align 1
  %tsd.addr.i17.i = alloca ptr, align 8
  %tsd.addr.i.i = alloca ptr, align 8
  %retval.i13 = alloca ptr, align 8
  %init.addr.i = alloca i8, align 1
  %minimal.addr.i = alloca i8, align 1
  %tsd.i = alloca ptr, align 8
  %retval.i = alloca i1, align 1
  %tsdn.addr.i11 = alloca ptr, align 8
  %tsdn.addr.i = alloca ptr, align 8
  %tsd.addr.i10 = alloca ptr, align 8
  %tsd.addr.i = alloca ptr, align 8
  %retval = alloca i32, align 4
  %mib.addr = alloca ptr, align 8
  %miblen.addr = alloca i64, align 8
  %oldp.addr = alloca ptr, align 8
  %oldlenp.addr = alloca ptr, align 8
  %newp.addr = alloca ptr, align 8
  %newlen.addr = alloca i64, align 8
  %ret = alloca i32, align 4
  %tsd = alloca ptr, align 8
  store ptr %mib, ptr %mib.addr, align 8
  store i64 %miblen, ptr %miblen.addr, align 8
  store ptr %oldp, ptr %oldp.addr, align 8
  store ptr %oldlenp, ptr %oldlenp.addr, align 8
  store ptr %newp, ptr %newp.addr, align 8
  store i64 %newlen, ptr %newlen.addr, align 8
  br label %do.body

do.body:                                          ; preds = %entry
  br label %do.end

do.end:                                           ; preds = %do.body
  %0 = load i32, ptr @malloc_init_state, align 4
  %cmp.i = icmp eq i32 %0, 0
  %lnot2.i = xor i1 %cmp.i, true
  br i1 %lnot2.i, label %land.lhs.true.i, label %if.end.i

land.lhs.true.i:                                  ; preds = %do.end
  %call3.i = call zeroext i1 @malloc_init_hard()
  br i1 %call3.i, label %if.then.i, label %if.end.i

if.then.i:                                        ; preds = %land.lhs.true.i
  store i1 true, ptr %retval.i, align 1
  br label %malloc_init.exit

if.end.i:                                         ; preds = %land.lhs.true.i, %do.end
  store i1 false, ptr %retval.i, align 1
  br label %malloc_init.exit

malloc_init.exit:                                 ; preds = %if.end.i, %if.then.i
  %1 = load i1, ptr %retval.i, align 1
  %lnot = xor i1 %1, true
  %lnot1 = xor i1 %lnot, true
  %lnot.ext = zext i1 %lnot1 to i32
  %conv = sext i32 %lnot.ext to i64
  %tobool = icmp ne i64 %conv, 0
  br i1 %tobool, label %if.then, label %if.end

if.then:                                          ; preds = %malloc_init.exit
  br label %do.body2

do.body2:                                         ; preds = %if.then
  br label %do.end3

do.end3:                                          ; preds = %do.body2
  store i32 11, ptr %retval, align 4
  br label %return

if.end:                                           ; preds = %malloc_init.exit
  store i8 1, ptr %init.addr.i, align 1
  store i8 0, ptr %minimal.addr.i, align 1
  %2 = load i8, ptr %init.addr.i, align 1
  %tobool.i = trunc i8 %2 to i1
  %frombool.i.i = zext i1 %tobool.i to i8
  store i8 %frombool.i.i, ptr %init.addr.i.i, align 1
  %3 = call align 8 ptr @llvm.threadlocal.address.p0(ptr align 8 @tsd_tls)
  store ptr %3, ptr %tsd.i, align 8
  %4 = load i8, ptr %init.addr.i, align 1
  %tobool2.i = trunc i8 %4 to i1
  br i1 %tobool2.i, label %if.end.i15, label %land.lhs.true.i14

land.lhs.true.i14:                                ; preds = %if.end
  br label %if.end.i15

if.end.i15:                                       ; preds = %land.lhs.true.i14, %if.end
  %5 = load ptr, ptr %tsd.i, align 8
  store ptr %5, ptr %tsd.addr.i17.i, align 8
  %6 = load ptr, ptr %tsd.addr.i17.i, align 8
  %state.i.i = getelementptr inbounds %struct.tsd_s, ptr %6, i32 0, i32 29
  %7 = load i8, ptr %state.i.i, align 8
  %conv.i16 = zext i8 %7 to i32
  %cmp6.i = icmp ne i32 %conv.i16, 0
  br i1 %cmp6.i, label %if.then11.i, label %if.end14.i

if.then11.i:                                      ; preds = %if.end.i15
  %8 = load ptr, ptr %tsd.i, align 8
  %9 = load i8, ptr %minimal.addr.i, align 1
  %tobool12.i = trunc i8 %9 to i1
  %call13.i = call ptr @tsd_fetch_slow(ptr noundef %8, i1 noundef zeroext %tobool12.i) #14
  store ptr %call13.i, ptr %retval.i13, align 8
  br label %tsd_fetch_impl.exit

if.end14.i:                                       ; preds = %if.end.i15
  %10 = load ptr, ptr %tsd.i, align 8
  store ptr %10, ptr %tsd.addr.i.i, align 8
  %11 = load ptr, ptr %tsd.i, align 8
  store ptr %11, ptr %retval.i13, align 8
  br label %tsd_fetch_impl.exit

tsd_fetch_impl.exit:                              ; preds = %if.end14.i, %if.then11.i
  %12 = load ptr, ptr %retval.i13, align 8
  store ptr %12, ptr %tsd, align 8
  %13 = load ptr, ptr %tsd, align 8
  store ptr %13, ptr %tsd.addr.i10, align 8
  %14 = load ptr, ptr %tsd.addr.i10, align 8
  store ptr %14, ptr %tsdn.addr.i11, align 8
  %15 = load ptr, ptr %tsd, align 8
  %16 = load ptr, ptr %mib.addr, align 8
  %17 = load i64, ptr %miblen.addr, align 8
  %18 = load ptr, ptr %oldp.addr, align 8
  %19 = load ptr, ptr %oldlenp.addr, align 8
  %20 = load ptr, ptr %newp.addr, align 8
  %21 = load i64, ptr %newlen.addr, align 8
  %call6 = call i32 @ctl_bymib(ptr noundef %15, ptr noundef %16, i64 noundef %17, ptr noundef %18, ptr noundef %19, ptr noundef %20, i64 noundef %21)
  store i32 %call6, ptr %ret, align 4
  %22 = load ptr, ptr %tsd, align 8
  store ptr %22, ptr %tsd.addr.i, align 8
  %23 = load ptr, ptr %tsd.addr.i, align 8
  store ptr %23, ptr %tsdn.addr.i, align 8
  br label %do.body8

do.body8:                                         ; preds = %tsd_fetch_impl.exit
  br label %do.end9

do.end9:                                          ; preds = %do.body8
  %24 = load i32, ptr %ret, align 4
  store i32 %24, ptr %retval, align 4
  br label %return

return:                                           ; preds = %do.end9, %do.end3
  %25 = load i32, ptr %retval, align 4
  ret i32 %25
}